target datalayout = "e-m:e-p270:32:32-p271:32:32-p272:64:64-i64:64-i128:128-f80:128-n8:16:32:64-S128"
target triple = "x86_64-pc-linux-gnu"

%struct.JNINativeInterface_ = type { ptr, ptr, ptr, ptr, ptr, ptr, ptr, ptr, ptr, ptr, ptr, ptr, ptr, ptr, ptr, ptr, ptr, ptr, ptr, ptr, ptr, ptr, ptr, ptr, ptr, ptr, ptr, ptr, ptr, ptr, ptr, ptr, ptr, ptr, ptr, ptr, ptr, ptr, ptr, ptr, ptr, ptr, ptr, ptr, ptr, ptr, ptr, ptr, ptr, ptr, ptr, ptr, ptr, ptr, ptr, ptr, ptr, ptr, ptr, ptr, ptr, ptr, ptr, ptr, ptr, ptr, ptr, ptr, ptr, ptr, ptr, ptr, ptr, ptr, ptr, ptr, ptr, ptr, ptr, ptr, ptr, ptr, ptr, ptr, ptr, ptr, ptr, ptr, ptr, ptr, ptr, ptr, ptr, ptr, ptr, ptr, ptr, ptr, ptr, ptr, ptr, ptr, ptr, ptr, ptr, ptr, ptr, ptr, ptr, ptr, ptr, ptr, ptr, ptr, ptr, ptr, ptr, ptr, ptr, ptr, ptr, ptr, ptr, ptr, ptr, ptr, ptr, ptr, ptr, ptr, ptr, ptr, ptr, ptr, ptr, ptr, ptr, ptr, ptr, ptr, ptr, ptr, ptr, ptr, ptr, ptr, ptr, ptr, ptr, ptr, ptr, ptr, ptr, ptr, ptr, ptr, ptr, ptr, ptr, ptr, ptr, ptr, ptr, ptr, ptr, ptr, ptr, ptr, ptr, ptr, ptr, ptr, ptr, ptr, ptr, ptr, ptr, ptr, ptr, ptr, ptr, ptr, ptr, ptr, ptr, ptr, ptr, ptr, ptr, ptr, ptr, ptr, ptr, ptr, ptr, ptr, ptr, ptr, ptr, ptr, ptr, ptr, ptr, ptr, ptr, ptr, ptr, ptr, ptr, ptr, ptr, ptr, ptr, ptr, ptr, ptr, ptr, ptr, ptr, ptr, ptr, ptr, ptr, ptr, ptr, ptr, ptr, ptr, ptr, ptr, ptr, ptr, ptr, ptr, ptr }
%union.jvalue = type { i64 }

@tkClass = hidden global ptr null, align 8
@awtLockMID = hidden global ptr null, align 8
@awtUnlockMID = hidden global ptr null, align 8
@awtWaitMID = hidden global ptr null, align 8
@awtNotifyMID = hidden global ptr null, align 8
@awtNotifyAllMID = hidden global ptr null, align 8
@awtLockInited = hidden global i8 0, align 1
@awt_display = hidden global ptr null, align 8
@.str.4 = private unnamed_addr constant [19 x i8] c"sun/awt/SunToolkit\00", align 1
@.str.5 = private unnamed_addr constant [8 x i8] c"awtLock\00", align 1
@.str.6 = private unnamed_addr constant [4 x i8] c"()V\00", align 1
@.str.7 = private unnamed_addr constant [10 x i8] c"awtUnlock\00", align 1
@.str.8 = private unnamed_addr constant [12 x i8] c"awtLockWait\00", align 1
@.str.9 = private unnamed_addr constant [5 x i8] c"(J)V\00", align 1
@.str.10 = private unnamed_addr constant [14 x i8] c"awtLockNotify\00", align 1
@.str.11 = private unnamed_addr constant [17 x i8] c"awtLockNotifyAll\00", align 1
@.str.12 = private unnamed_addr constant [16 x i8] c"_AWT_IGNORE_XKB\00", align 1
@.str.13 = private unnamed_addr constant [15 x i8] c"Ignoring XKB.\0A\00", align 1
@.str.14 = private unnamed_addr constant [84 x i8] c"Can't connect to X11 window server using '%s' as the value of the DISPLAY variable.\00", align 1
@.str.15 = private unnamed_addr constant [8 x i8] c"DISPLAY\00", align 1
@.str.16 = private unnamed_addr constant [5 x i8] c":0.0\00", align 1
@.str.17 = private unnamed_addr constant [18 x i8] c"java/awt/AWTError\00", align 1
@.str.18 = private unnamed_addr constant [30 x i8] c"sun/awt/X11/XErrorHandlerUtil\00", align 1
@.str.19 = private unnamed_addr constant [5 x i8] c"init\00", align 1

; Function Attrs: nounwind uwtable
define hidden ptr @awt_init_Display(ptr noundef %0, ptr noundef %1) #0 {
  %3 = alloca ptr, align 8
  %4 = alloca ptr, align 8
  %5 = alloca ptr, align 8
  %6 = alloca ptr, align 8
  %7 = alloca ptr, align 8
  %8 = alloca [128 x i8], align 16
  %9 = alloca %union.jvalue, align 8
  store ptr %0, ptr %4, align 8
  store ptr %1, ptr %5, align 8
  %10 = load ptr, ptr @awt_display, align 8
  %11 = icmp ne ptr %10, null
  br i1 %11, label %12, label %14

12:                                               ; preds = %2
  %13 = load ptr, ptr @awt_display, align 8
  store ptr %13, ptr %3, align 8
  br label %144

14:                                               ; preds = %2
  %15 = load ptr, ptr %4, align 8
  %16 = load ptr, ptr %15, align 8
  %17 = getelementptr inbounds %struct.JNINativeInterface_, ptr %16, i32 0, i32 6
  %18 = load ptr, ptr %17, align 8
  %19 = load ptr, ptr %4, align 8
  %20 = call ptr %18(ptr noundef %19, ptr noundef @.str.4)
  store ptr %20, ptr %6, align 8
  %21 = load ptr, ptr %6, align 8
  %22 = icmp eq ptr %21, null
  br i1 %22, label %23, label %24

23:                                               ; preds = %14
  store ptr null, ptr %3, align 8
  br label %144

24:                                               ; preds = %14
  br label %25

25:                                               ; preds = %24
  %26 = load ptr, ptr %4, align 8
  %27 = load ptr, ptr %26, align 8
  %28 = getelementptr inbounds %struct.JNINativeInterface_, ptr %27, i32 0, i32 113
  %29 = load ptr, ptr %28, align 8
  %30 = load ptr, ptr %4, align 8
  %31 = load ptr, ptr %6, align 8
  %32 = call ptr %29(ptr noundef %30, ptr noundef %31, ptr noundef @.str.5, ptr noundef @.str.6)
  store ptr %32, ptr @awtLockMID, align 8
  %33 = load ptr, ptr @awtLockMID, align 8
  %34 = icmp eq ptr %33, null
  br i1 %34, label %35, label %36

35:                                               ; preds = %25
  store ptr null, ptr %3, align 8
  br label %144

36:                                               ; preds = %25
  br label %37

37:                                               ; preds = %36
  br label %38

38:                                               ; preds = %37
  %39 = load ptr, ptr %4, align 8
  %40 = load ptr, ptr %39, align 8
  %41 = getelementptr inbounds %struct.JNINativeInterface_, ptr %40, i32 0, i32 113
  %42 = load ptr, ptr %41, align 8
  %43 = load ptr, ptr %4, align 8
  %44 = load ptr, ptr %6, align 8
  %45 = call ptr %42(ptr noundef %43, ptr noundef %44, ptr noundef @.str.7, ptr noundef @.str.6)
  store ptr %45, ptr @awtUnlockMID, align 8
  %46 = load ptr, ptr @awtUnlockMID, align 8
  %47 = icmp eq ptr %46, null
  br i1 %47, label %48, label %49

48:                                               ; preds = %38
  store ptr null, ptr %3, align 8
  br label %144

49:                                               ; preds = %38
  br label %50

50:                                               ; preds = %49
  br label %51

51:                                               ; preds = %50
  %52 = load ptr, ptr %4, align 8
  %53 = load ptr, ptr %52, align 8
  %54 = getelementptr inbounds %struct.JNINativeInterface_, ptr %53, i32 0, i32 113
  %55 = load ptr, ptr %54, align 8
  %56 = load ptr, ptr %4, align 8
  %57 = load ptr, ptr %6, align 8
  %58 = call ptr %55(ptr noundef %56, ptr noundef %57, ptr noundef @.str.8, ptr noundef @.str.9)
  store ptr %58, ptr @awtWaitMID, align 8
  %59 = load ptr, ptr @awtWaitMID, align 8
  %60 = icmp eq ptr %59, null
  br i1 %60, label %61, label %62

61:                                               ; preds = %51
  store ptr null, ptr %3, align 8
  br label %144

62:                                               ; preds = %51
  br label %63

63:                                               ; preds = %62
  br label %64

64:                                               ; preds = %63
  %65 = load ptr, ptr %4, align 8
  %66 = load ptr, ptr %65, align 8
  %67 = getelementptr inbounds %struct.JNINativeInterface_, ptr %66, i32 0, i32 113
  %68 = load ptr, ptr %67, align 8
  %69 = load ptr, ptr %4, align 8
  %70 = load ptr, ptr %6, align 8
  %71 = call ptr %68(ptr noundef %69, ptr noundef %70, ptr noundef @.str.10, ptr noundef @.str.6)
  store ptr %71, ptr @awtNotifyMID, align 8
  %72 = load ptr, ptr @awtNotifyMID, align 8
  %73 = icmp eq ptr %72, null
  br i1 %73, label %74, label %75

74:                                               ; preds = %64
  store ptr null, ptr %3, align 8
  br label %144

75:                                               ; preds = %64
  br label %76

76:                                               ; preds = %75
  br label %77

77:                                               ; preds = %76
  %78 = load ptr, ptr %4, align 8
  %79 = load ptr, ptr %78, align 8
  %80 = getelementptr inbounds %struct.JNINativeInterface_, ptr %79, i32 0, i32 113
  %81 = load ptr, ptr %80, align 8
  %82 = load ptr, ptr %4, align 8
  %83 = load ptr, ptr %6, align 8
  %84 = call ptr %81(ptr noundef %82, ptr noundef %83, ptr noundef @.str.11, ptr noundef @.str.6)
  store ptr %84, ptr @awtNotifyAllMID, align 8
  %85 = load ptr, ptr @awtNotifyAllMID, align 8
  %86 = icmp eq ptr %85, null
  br i1 %86, label %87, label %88

87:                                               ; preds = %77
  store ptr null, ptr %3, align 8
  br label %144

88:                                               ; preds = %77
  br label %89

89:                                               ; preds = %88
  %90 = load ptr, ptr %4, align 8
  %91 = load ptr, ptr %90, align 8
  %92 = getelementptr inbounds %struct.JNINativeInterface_, ptr %91, i32 0, i32 21
  %93 = load ptr, ptr %92, align 8
  %94 = load ptr, ptr %4, align 8
  %95 = load ptr, ptr %6, align 8
  %96 = call ptr %93(ptr noundef %94, ptr noundef %95)
  store ptr %96, ptr @tkClass, align 8
  store i8 1, ptr @awtLockInited, align 1
  %97 = call ptr @getenv(ptr noundef @.str.12) #8
  %98 = icmp ne ptr %97, null
  br i1 %98, label %99, label %109

99:                                               ; preds = %89
  %100 = call ptr @getenv(ptr noundef @.str.12) #8
  %101 = call i64 @strlen(ptr noundef %100) #10
  %102 = icmp ugt i64 %101, 0
  br i1 %102, label %103, label %109

103:                                              ; preds = %99
  %104 = call i32 @XkbIgnoreExtension(i32 noundef 1)
  %105 = icmp ne i32 %104, 0
  br i1 %105, label %106, label %108

106:                                              ; preds = %103
  %107 = call i32 (ptr, ...) @printf(ptr noundef @.str.13)
  br label %108

108:                                              ; preds = %106, %103
  br label %109

109:                                              ; preds = %108, %99, %89
  %110 = call ptr @XOpenDisplay(ptr noundef null)
  store ptr %110, ptr @awt_display, align 8
  store ptr %110, ptr %7, align 8
  %111 = load ptr, ptr %7, align 8
  %112 = icmp ne ptr %111, null
  br i1 %112, label %125, label %113

113:                                              ; preds = %109
  %114 = getelementptr inbounds [128 x i8], ptr %8, i64 0, i64 0
  %115 = call ptr @getenv(ptr noundef @.str.15) #8
  %116 = icmp eq ptr %115, null
  br i1 %116, label %117, label %118

117:                                              ; preds = %113
  br label %120

118:                                              ; preds = %113
  %119 = call ptr @getenv(ptr noundef @.str.15) #8
  br label %120

120:                                              ; preds = %118, %117
  %121 = phi ptr [ @.str.16, %117 ], [ %119, %118 ]
  %122 = call i32 (ptr, i64, ptr, ...) @jio_snprintf(ptr noundef %114, i64 noundef 128, ptr noundef @.str.14, ptr noundef %121)
  %123 = load ptr, ptr %4, align 8
  %124 = getelementptr inbounds [128 x i8], ptr %8, i64 0, i64 0
  call void @JNU_ThrowByName(ptr noundef %123, ptr noundef @.str.17, ptr noundef %124)
  store ptr null, ptr %3, align 8
  br label %144

125:                                              ; preds = %109
  %126 = call ptr @XSetIOErrorHandler(ptr noundef @xioerror_handler)
  %127 = load ptr, ptr %4, align 8
  %128 = load ptr, ptr @awt_display, align 8
  %129 = ptrtoint ptr %128 to i64
  %130 = call i64 (ptr, ptr, ptr, ptr, ptr, ...) @JNU_CallStaticMethodByName(ptr noundef %127, ptr noundef null, ptr noundef @.str.18, ptr noundef @.str.19, ptr noundef @.str.9, i64 noundef %129)
  %131 = getelementptr inbounds %union.jvalue, ptr %9, i32 0, i32 0
  store i64 %130, ptr %131, align 8
  br label %132

132:                                              ; preds = %125
  %133 = load ptr, ptr %4, align 8
  %134 = load ptr, ptr %133, align 8
  %135 = getelementptr inbounds %struct.JNINativeInterface_, ptr %134, i32 0, i32 228
  %136 = load ptr, ptr %135, align 8
  %137 = load ptr, ptr %4, align 8
  %138 = call zeroext i8 %136(ptr noundef %137)
  %139 = icmp ne i8 %138, 0
  br i1 %139, label %140, label %141

140:                                              ; preds = %132
  store ptr null, ptr %3, align 8
  br label %144

141:                                              ; preds = %132
  br label %142

142:                                              ; preds = %141
  call void @xineramaInit()
  %143 = load ptr, ptr %7, align 8
  store ptr %143, ptr %3, align 8
  br label %144

144:                                              ; preds = %142, %140, %120, %87, %74, %61, %48, %35, %23, %12
  %145 = load ptr, ptr %3, align 8
  ret ptr %145
}