; Function Attrs: nounwind uwtable
define hidden ptr @awt_init_Display(ptr noundef %0, ptr nocapture readnone %1) local_unnamed_addr #0 {
  %3 = alloca [128 x i8], align 16
  %4 = load ptr, ptr @awt_display, align 8
  %.not = icmp eq ptr %4, null
  br i1 %.not, label %5, label %67

5:                                                ; preds = %2
  %6 = load ptr, ptr %0, align 8
  %7 = getelementptr inbounds i8, ptr %6, i64 48
  %8 = load ptr, ptr %7, align 8
  %9 = tail call ptr %8(ptr noundef nonnull %0, ptr noundef nonnull @.str.4) #17
  %10 = icmp eq ptr %9, null
  br i1 %10, label %67, label %11

11:                                               ; preds = %5
  %12 = load ptr, ptr %0, align 8
  %13 = getelementptr inbounds i8, ptr %12, i64 904
  %14 = load ptr, ptr %13, align 8
  %15 = tail call ptr %14(ptr noundef nonnull %0, ptr noundef nonnull %9, ptr noundef nonnull @.str.5, ptr noundef nonnull @.str.6) #17
  store ptr %15, ptr @awtLockMID, align 8
  %16 = icmp eq ptr %15, null
  br i1 %16, label %67, label %17

17:                                               ; preds = %11
  %18 = load ptr, ptr %0, align 8
  %19 = getelementptr inbounds i8, ptr %18, i64 904
  %20 = load ptr, ptr %19, align 8
  %21 = tail call ptr %20(ptr noundef nonnull %0, ptr noundef nonnull %9, ptr noundef nonnull @.str.7, ptr noundef nonnull @.str.6) #17
  store ptr %21, ptr @awtUnlockMID, align 8
  %22 = icmp eq ptr %21, null
  br i1 %22, label %67, label %23

23:                                               ; preds = %17
  %24 = load ptr, ptr %0, align 8
  %25 = getelementptr inbounds i8, ptr %24, i64 904
  %26 = load ptr, ptr %25, align 8
  %27 = tail call ptr %26(ptr noundef nonnull %0, ptr noundef nonnull %9, ptr noundef nonnull @.str.8, ptr noundef nonnull @.str.9) #17
  store ptr %27, ptr @awtWaitMID, align 8
  %28 = icmp eq ptr %27, null
  br i1 %28, label %67, label %29

29:                                               ; preds = %23
  %30 = load ptr, ptr %0, align 8
  %31 = getelementptr inbounds i8, ptr %30, i64 904
  %32 = load ptr, ptr %31, align 8
  %33 = tail call ptr %32(ptr noundef nonnull %0, ptr noundef nonnull %9, ptr noundef nonnull @.str.10, ptr noundef nonnull @.str.6) #17
  store ptr %33, ptr @awtNotifyMID, align 8
  %34 = icmp eq ptr %33, null
  br i1 %34, label %67, label %35

35:                                               ; preds = %29
  %36 = load ptr, ptr %0, align 8
  %37 = getelementptr inbounds i8, ptr %36, i64 904
  %38 = load ptr, ptr %37, align 8
  %39 = tail call ptr %38(ptr noundef nonnull %0, ptr noundef nonnull %9, ptr noundef nonnull @.str.11, ptr noundef nonnull @.str.6) #17
  store ptr %39, ptr @awtNotifyAllMID, align 8
  %40 = icmp eq ptr %39, null
  br i1 %40, label %67, label %41

41:                                               ; preds = %35
  %42 = load ptr, ptr %0, align 8
  %43 = getelementptr inbounds i8, ptr %42, i64 168
  %44 = load ptr, ptr %43, align 8
  %45 = tail call ptr %44(ptr noundef nonnull %0, ptr noundef nonnull %9) #17
  store ptr %45, ptr @tkClass, align 8
  store i8 1, ptr @awtLockInited, align 1
  %46 = tail call ptr @getenv(ptr noundef nonnull @.str.12) #17
  %.not33 = icmp eq ptr %46, null
  br i1 %.not33, label %51, label %47

47:                                               ; preds = %41
  %char0 = load i8, ptr %46, align 1
  %.not34 = icmp eq i8 %char0, 0
  br i1 %.not34, label %51, label %48

48:                                               ; preds = %47
  %49 = tail call i32 @XkbIgnoreExtension(i32 noundef 1) #17
  %.not35 = icmp eq i32 %49, 0
  br i1 %.not35, label %51, label %50

50:                                               ; preds = %48
  %puts = tail call i32 @puts(ptr nonnull dereferenceable(1) @str)
  br label %51

51:                                               ; preds = %48, %50, %47, %41
  %52 = tail call ptr @XOpenDisplay(ptr noundef null) #17
  store ptr %52, ptr @awt_display, align 8
  %.not36 = icmp eq ptr %52, null
  br i1 %.not36, label %53, label %57

53:                                               ; preds = %51
  %54 = tail call ptr @getenv(ptr noundef nonnull @.str.15) #17
  %55 = icmp eq ptr %54, null
  %spec.select = select i1 %55, ptr @.str.16, ptr %54
  %56 = call i32 (ptr, i64, ptr, ...) @jio_snprintf(ptr noundef nonnull %3, i64 noundef 128, ptr noundef nonnull @.str.14, ptr noundef nonnull %spec.select) #17
  call void @JNU_ThrowByName(ptr noundef nonnull %0, ptr noundef nonnull @.str.17, ptr noundef nonnull %3) #17
  br label %67

57:                                               ; preds = %51
  %58 = tail call ptr @XSetIOErrorHandler(ptr noundef nonnull @xioerror_handler) #17
  %59 = load ptr, ptr @awt_display, align 8
  %60 = ptrtoint ptr %59 to i64
  %61 = tail call i64 (ptr, ptr, ptr, ptr, ptr, ...) @JNU_CallStaticMethodByName(ptr noundef nonnull %0, ptr noundef null, ptr noundef nonnull @.str.18, ptr noundef nonnull @.str.19, ptr noundef nonnull @.str.9, i64 noundef %60) #17
  %62 = load ptr, ptr %0, align 8
  %63 = getelementptr inbounds i8, ptr %62, i64 1824
  %64 = load ptr, ptr %63, align 8
  %65 = tail call zeroext i8 %64(ptr noundef nonnull %0) #17
  %.not37 = icmp eq i8 %65, 0
  br i1 %.not37, label %66, label %67

66:                                               ; preds = %57
  tail call fastcc void @xineramaInit()
  br label %67

67:                                               ; preds = %57, %35, %29, %23, %17, %11, %5, %2, %66, %53
  %.0 = phi ptr [ %52, %66 ], [ null, %53 ], [ %4, %2 ], [ null, %5 ], [ null, %11 ], [ null, %17 ], [ null, %23 ], [ null, %29 ], [ null, %35 ], [ null, %57 ]
  ret ptr %.0
}